target datalayout = "e-m:e-p270:32:32-p271:32:32-p272:64:64-i64:64-i128:128-f80:128-n8:16:32:64-S128"
target triple = "x86_64-pc-linux-gnu"

%struct._zval_struct = type { %union._zend_value, %union.anon, %union.anon.3 }
%union._zend_value = type { i64 }
%union.anon = type { i32 }
%union.anon.3 = type { i32 }
%struct.anon.1 = type { i8, i8, %union.anon.2 }
%union.anon.2 = type { i16 }

; Function Attrs: nounwind uwtable
define internal void @empty_partial_array(ptr noundef %0) #0 {
  %2 = alloca ptr, align 8
  store ptr %0, ptr %2, align 8
  %3 = load ptr, ptr %2, align 8
  %4 = getelementptr inbounds %struct._zval_struct, ptr %3, i32 0, i32 1
  store i32 509, ptr %4, align 8
  %5 = call ptr @_zend_new_array_0()
  %6 = load ptr, ptr %2, align 8
  %7 = getelementptr inbounds %struct._zval_struct, ptr %6, i32 0, i32 0
  store ptr %5, ptr %7, align 8
  ret void
}

; Function Attrs: nounwind uwtable
define internal i32 @join_partial_arrays(ptr noundef %0, ptr noundef %1) #0 {
  %3 = alloca ptr, align 8
  %4 = alloca ptr, align 8
  %5 = alloca ptr, align 8
  %6 = alloca ptr, align 8
  %7 = alloca ptr, align 8
  %8 = alloca ptr, align 8
  %9 = alloca ptr, align 8
  %10 = alloca i32, align 4
  %11 = alloca ptr, align 8
  %12 = alloca ptr, align 8
  %13 = alloca %struct._zval_struct, align 8
  %14 = alloca ptr, align 8
  %15 = alloca ptr, align 8
  %16 = alloca ptr, align 8
  %17 = alloca i32, align 4
  store ptr %0, ptr %11, align 8
  store ptr %1, ptr %12, align 8
  %18 = load ptr, ptr %11, align 8
  store ptr %18, ptr %6, align 8
  %19 = load ptr, ptr %6, align 8
  %20 = getelementptr inbounds %struct._zval_struct, ptr %19, i32 0, i32 1
  %21 = load i8, ptr %20, align 8
  %22 = zext i8 %21 to i32
  %23 = icmp ne i32 %22, 7
  br i1 %23, label %24, label %31

24:                                               ; preds = %2
  %25 = load ptr, ptr %11, align 8
  store ptr %25, ptr %7, align 8
  %26 = load ptr, ptr %7, align 8
  %27 = getelementptr inbounds %struct._zval_struct, ptr %26, i32 0, i32 1
  %28 = load i8, ptr %27, align 8
  %29 = zext i8 %28 to i32
  %30 = icmp eq i32 %29, 253
  br i1 %30, label %31, label %45

31:                                               ; preds = %24, %2
  %32 = load ptr, ptr %12, align 8
  store ptr %32, ptr %8, align 8
  %33 = load ptr, ptr %8, align 8
  %34 = getelementptr inbounds %struct._zval_struct, ptr %33, i32 0, i32 1
  %35 = load i8, ptr %34, align 8
  %36 = zext i8 %35 to i32
  %37 = icmp ne i32 %36, 7
  br i1 %37, label %38, label %46

38:                                               ; preds = %31
  %39 = load ptr, ptr %12, align 8
  store ptr %39, ptr %9, align 8
  %40 = load ptr, ptr %9, align 8
  %41 = getelementptr inbounds %struct._zval_struct, ptr %40, i32 0, i32 1
  %42 = load i8, ptr %41, align 8
  %43 = zext i8 %42 to i32
  %44 = icmp eq i32 %43, 253
  br i1 %44, label %46, label %45

45:                                               ; preds = %38, %24
  store i32 -1, ptr %10, align 4
  br label %100

46:                                               ; preds = %38, %31
  call void @empty_partial_array(ptr noundef %13)
  %47 = getelementptr inbounds %struct._zval_struct, ptr %13, i32 0, i32 0
  %48 = load ptr, ptr %47, align 8
  %49 = load ptr, ptr %11, align 8
  %50 = getelementptr inbounds %struct._zval_struct, ptr %49, i32 0, i32 0
  %51 = load ptr, ptr %50, align 8
  %52 = load ptr, ptr %12, align 8
  %53 = getelementptr inbounds %struct._zval_struct, ptr %52, i32 0, i32 0
  %54 = load ptr, ptr %53, align 8
  call void @join_hash_tables(ptr noundef %48, ptr noundef %51, ptr noundef %54)
  %55 = load ptr, ptr %11, align 8
  store ptr %55, ptr %5, align 8
  %56 = load ptr, ptr %5, align 8
  %57 = getelementptr inbounds %struct._zval_struct, ptr %56, i32 0, i32 1
  %58 = getelementptr inbounds %struct.anon.1, ptr %57, i32 0, i32 1
  %59 = load i8, ptr %58, align 1
  %60 = zext i8 %59 to i32
  %61 = icmp ne i32 %60, 0
  br i1 %61, label %62, label %82

62:                                               ; preds = %46
  %63 = load ptr, ptr %5, align 8
  store ptr %63, ptr %4, align 8
  %64 = load ptr, ptr %4, align 8
  %65 = getelementptr inbounds %struct._zval_struct, ptr %64, i32 0, i32 1
  %66 = getelementptr inbounds %struct.anon.1, ptr %65, i32 0, i32 1
  %67 = load i8, ptr %66, align 1
  %68 = zext i8 %67 to i32
  %69 = icmp ne i32 %68, 0
  call void @llvm.assume(i1 %69)
  %70 = load ptr, ptr %4, align 8
  %71 = load ptr, ptr %70, align 8
  store ptr %71, ptr %3, align 8
  %72 = load ptr, ptr %3, align 8
  %73 = load i32, ptr %72, align 4
  %74 = icmp ugt i32 %73, 0
  call void @llvm.assume(i1 %74)
  %75 = load ptr, ptr %3, align 8
  %76 = load i32, ptr %75, align 4
  %77 = add i32 %76, -1
  store i32 %77, ptr %75, align 4
  %78 = icmp ne i32 %77, 0
  br i1 %78, label %82, label %79

79:                                               ; preds = %62
  %80 = load ptr, ptr %5, align 8
  %81 = load ptr, ptr %80, align 8
  call void @rc_dtor_func(ptr noundef %81) #10
  br label %82

82:                                               ; preds = %79, %62, %46
  br label %83

83:                                               ; preds = %82
  %84 = load ptr, ptr %11, align 8
  store ptr %84, ptr %14, align 8
  store ptr %13, ptr %15, align 8
  %85 = load ptr, ptr %15, align 8
  %86 = getelementptr inbounds %struct._zval_struct, ptr %85, i32 0, i32 0
  %87 = load ptr, ptr %86, align 8
  store ptr %87, ptr %16, align 8
  %88 = load ptr, ptr %15, align 8
  %89 = getelementptr inbounds %struct._zval_struct, ptr %88, i32 0, i32 1
  %90 = load i32, ptr %89, align 8
  store i32 %90, ptr %17, align 4
  br label %91

91:                                               ; preds = %83
  %92 = load ptr, ptr %16, align 8
  %93 = load ptr, ptr %14, align 8
  %94 = getelementptr inbounds %struct._zval_struct, ptr %93, i32 0, i32 0
  store ptr %92, ptr %94, align 8
  %95 = load i32, ptr %17, align 4
  %96 = load ptr, ptr %14, align 8
  %97 = getelementptr inbounds %struct._zval_struct, ptr %96, i32 0, i32 1
  store i32 %95, ptr %97, align 8
  br label %98

98:                                               ; preds = %91
  br label %99

99:                                               ; preds = %98
  store i32 0, ptr %10, align 4
  br label %100

100:                                              ; preds = %99, %45
  %101 = load i32, ptr %10, align 4
  ret i32 %101
}