; Function Attrs: nounwind uwtable
define internal fastcc noundef i32 @join_partial_arrays(ptr nocapture noundef %0, ptr nocapture noundef readonly %1) unnamed_addr #0 {
  %3 = getelementptr inbounds i8, ptr %0, i64 8
  %4 = load i8, ptr %3, align 8
  switch i8 %4, label %22 [
    i8 7, label %5
    i8 -3, label %5
  ]

5:                                                ; preds = %2, %2
  %6 = getelementptr inbounds i8, ptr %1, i64 8
  %7 = load i8, ptr %6, align 8
  switch i8 %7, label %22 [
    i8 7, label %8
    i8 -3, label %8
  ]

8:                                                ; preds = %5, %5
  %9 = tail call ptr @_zend_new_array_0() #13
  %10 = load ptr, ptr %0, align 8
  %11 = load ptr, ptr %1, align 8
  tail call fastcc void @join_hash_tables(ptr noundef %9, ptr noundef %10, ptr noundef %11)
  %12 = getelementptr inbounds i8, ptr %0, i64 9
  %13 = load i8, ptr %12, align 1
  %.not28 = icmp eq i8 %13, 0
  br i1 %.not28, label %21, label %14

14:                                               ; preds = %8
  %15 = load ptr, ptr %0, align 8
  %16 = load i32, ptr %15, align 4
  %17 = icmp ne i32 %16, 0
  tail call void @llvm.assume(i1 %17)
  %18 = add i32 %16, -1
  store i32 %18, ptr %15, align 4
  %.not29 = icmp eq i32 %18, 0
  br i1 %.not29, label %19, label %21

19:                                               ; preds = %14
  %20 = load ptr, ptr %0, align 8
  tail call void @rc_dtor_func(ptr noundef %20) #13
  br label %21

21:                                               ; preds = %8, %14, %19
  store ptr %9, ptr %0, align 8
  store i32 509, ptr %3, align 8
  br label %22

22:                                               ; preds = %2, %5, %21
  %.0 = phi i32 [ 0, %21 ], [ -1, %5 ], [ -1, %2 ]
  ret i32 %.0
}